# SymbolsHelper-Confirmed: 6.0.0 amd64
libKF6GlobalAccel.so.6 libkf6globalaccel6 #MINVER#
* Build-Depends-Package: libkf6globalaccel-dev
 _ZGVZN9QMetaType21registerConverterImplI5QListI12QKeySequenceE9QIterableI13QMetaSequenceEEEbSt8functionIFbPKvPvEES_S_E10unregister@Base 6.0.0
 _ZGVZN9QMetaType21registerConverterImplI5QListI15QDBusObjectPathE9QIterableI13QMetaSequenceEEEbSt8functionIFbPKvPvEES_S_E10unregister@Base 6.0.0
 _ZGVZN9QMetaType21registerConverterImplI5QListI19KGlobalShortcutInfoE9QIterableI13QMetaSequenceEEEbSt8functionIFbPKvPvEES_S_E10unregister@Base 6.0.0
 _ZGVZN9QMetaType21registerConverterImplI5QListIS1_I7QStringEE9QIterableI13QMetaSequenceEEEbSt8functionIFbPKvPvEES_S_E10unregister@Base 6.0.0
 _ZGVZN9QMetaType21registerConverterImplI5QListIiE9QIterableI13QMetaSequenceEEEbSt8functionIFbPKvPvEES_S_E10unregister@Base 6.0.0
 _ZGVZN9QMetaType23registerMutableViewImplI5QListI12QKeySequenceE9QIterableI13QMetaSequenceEEEbSt8functionIFbPvS8_EES_S_E10unregister@Base 6.0.0
 _ZGVZN9QMetaType23registerMutableViewImplI5QListI15QDBusObjectPathE9QIterableI13QMetaSequenceEEEbSt8functionIFbPvS8_EES_S_E10unregister@Base 6.0.0
 _ZGVZN9QMetaType23registerMutableViewImplI5QListI19KGlobalShortcutInfoE9QIterableI13QMetaSequenceEEEbSt8functionIFbPvS8_EES_S_E10unregister@Base 6.0.0
 _ZGVZN9QMetaType23registerMutableViewImplI5QListIS1_I7QStringEE9QIterableI13QMetaSequenceEEEbSt8functionIFbPvS9_EES_S_E10unregister@Base 6.0.0
 _ZGVZN9QMetaType23registerMutableViewImplI5QListIiE9QIterableI13QMetaSequenceEEEbSt8functionIFbPvS7_EES_S_E10unregister@Base 6.0.0
 _ZN12KGlobalAccel11qt_metacallEN11QMetaObject4CallEiPPv@Base 6.0.0
 _ZN12KGlobalAccel11qt_metacastEPKc@Base 6.0.0
 _ZN12KGlobalAccel11setShortcutEP7QActionRK5QListI12QKeySequenceENS_21GlobalShortcutLoadingE@Base 6.0.0
 _ZN12KGlobalAccel14cleanComponentERK7QString@Base 6.0.0
 _ZN12KGlobalAccel16staticMetaObjectE@Base 6.0.0
 _ZN12KGlobalAccel17isComponentActiveERK7QString@Base 6.0.0
 _ZN12KGlobalAccel17setGlobalShortcutEP7QActionRK12QKeySequence@Base 6.0.0
 _ZN12KGlobalAccel17setGlobalShortcutEP7QActionRK5QListI12QKeySequenceE@Base 6.0.0
 _ZN12KGlobalAccel18removeAllShortcutsEP7QAction@Base 6.0.0
 _ZN12KGlobalAccel18setDefaultShortcutEP7QActionRK5QListI12QKeySequenceENS_21GlobalShortcutLoadingE@Base 6.0.0
 _ZN12KGlobalAccel20globalShortcutsByKeyERK12QKeySequenceNS_9MatchTypeE@Base 6.0.0
 _ZN12KGlobalAccel21globalShortcutChangedEP7QActionRK12QKeySequence@Base 6.0.0
 _ZN12KGlobalAccel23stealShortcutSystemwideERK12QKeySequence@Base 6.0.0
 _ZN12KGlobalAccel25isGlobalShortcutAvailableERK12QKeySequenceRK7QString@Base 6.0.0
 _ZN12KGlobalAccel27globalShortcutActiveChangedEP7QActionb@Base 6.0.0
 _ZN12KGlobalAccel29promptStealShortcutSystemwideEP7QWidgetRK5QListI19KGlobalShortcutInfoERK12QKeySequence@Base 6.0.0
 _ZN12KGlobalAccel4selfEv@Base 6.0.0
 _ZN13QMetaSequence12MetaSequenceI5QListI12QKeySequenceEE5valueE@Base 6.0.0
 _ZN13QMetaSequence12MetaSequenceI5QListI15QDBusObjectPathEE5valueE@Base 6.0.0
 _ZN13QMetaSequence12MetaSequenceI5QListI19KGlobalShortcutInfoEE5valueE@Base 6.0.0
 _ZN13QMetaSequence12MetaSequenceI5QListIS1_I7QStringEEE5valueE@Base 6.0.0
 _ZN13QMetaSequence12MetaSequenceI5QListIiEE5valueE@Base 6.0.0
 _ZN19KGlobalShortcutInfo11qt_metacallEN11QMetaObject4CallEiPPv@Base 6.0.0
 _ZN19KGlobalShortcutInfo11qt_metacastEPKc@Base 6.0.0
 _ZN19KGlobalShortcutInfo16staticMetaObjectE@Base 6.0.0
 _ZN19KGlobalShortcutInfoC1ERKS_@Base 6.0.0
 _ZN19KGlobalShortcutInfoC1Ev@Base 6.0.0
 _ZN19KGlobalShortcutInfoC2ERKS_@Base 6.0.0
 _ZN19KGlobalShortcutInfoC2Ev@Base 6.0.0
 _ZN19KGlobalShortcutInfoD0Ev@Base 6.0.0
 _ZN19KGlobalShortcutInfoD1Ev@Base 6.0.0
 _ZN19KGlobalShortcutInfoD2Ev@Base 6.0.0
 _ZN19KGlobalShortcutInfoaSERKS_@Base 6.0.0
 _ZNK12KGlobalAccel10metaObjectEv@Base 6.0.0
 _ZNK12KGlobalAccel11hasShortcutEPK7QAction@Base 6.0.0
 _ZNK12KGlobalAccel14globalShortcutERK7QStringS2_@Base 6.0.0
 _ZNK12KGlobalAccel15defaultShortcutEPK7QAction@Base 6.0.0
 _ZNK12KGlobalAccel8shortcutEPK7QAction@Base 6.0.0
 _ZNK19KGlobalShortcutInfo10metaObjectEv@Base 6.0.0
 _ZNK19KGlobalShortcutInfo10uniqueNameEv@Base 6.0.0
 _ZNK19KGlobalShortcutInfo11defaultKeysEv@Base 6.0.0
 _ZNK19KGlobalShortcutInfo12friendlyNameEv@Base 6.0.0
 _ZNK19KGlobalShortcutInfo17contextUniqueNameEv@Base 6.0.0
 _ZNK19KGlobalShortcutInfo19componentUniqueNameEv@Base 6.0.0
 _ZNK19KGlobalShortcutInfo19contextFriendlyNameEv@Base 6.0.0
 _ZNK19KGlobalShortcutInfo21componentFriendlyNameEv@Base 6.0.0
 _ZNK19KGlobalShortcutInfo4keysEv@Base 6.0.0
 _ZTI12KGlobalAccel@Base 6.0.0
 _ZTI19KGlobalShortcutInfo@Base 6.0.0
 _ZTIZN9QMetaType17registerConverterI5QListI12QKeySequenceE9QIterableI13QMetaSequenceEN9QtPrivate33QSequentialIterableConvertFunctorIS3_EEEEbT1_EUlPKvPvE_@Base 6.0.0
 _ZTIZN9QMetaType17registerConverterI5QListI15QDBusObjectPathE9QIterableI13QMetaSequenceEN9QtPrivate33QSequentialIterableConvertFunctorIS3_EEEEbT1_EUlPKvPvE_@Base 6.0.0
 _ZTIZN9QMetaType17registerConverterI5QListI19KGlobalShortcutInfoE9QIterableI13QMetaSequenceEN9QtPrivate33QSequentialIterableConvertFunctorIS3_EEEEbT1_EUlPKvPvE_@Base 6.0.0
 _ZTIZN9QMetaType17registerConverterI5QListIS1_I7QStringEE9QIterableI13QMetaSequenceEN9QtPrivate33QSequentialIterableConvertFunctorIS4_EEEEbT1_EUlPKvPvE_@Base 6.0.0
 _ZTIZN9QMetaType17registerConverterI5QListIiE9QIterableI13QMetaSequenceEN9QtPrivate33QSequentialIterableConvertFunctorIS2_EEEEbT1_EUlPKvPvE_@Base 6.0.0
 _ZTIZN9QMetaType19registerMutableViewI5QListI12QKeySequenceE9QIterableI13QMetaSequenceEN9QtPrivate37QSequentialIterableMutableViewFunctorIS3_EEEEbT1_EUlPvSB_E_@Base 6.0.0
 _ZTIZN9QMetaType19registerMutableViewI5QListI15QDBusObjectPathE9QIterableI13QMetaSequenceEN9QtPrivate37QSequentialIterableMutableViewFunctorIS3_EEEEbT1_EUlPvSB_E_@Base 6.0.0
 _ZTIZN9QMetaType19registerMutableViewI5QListI19KGlobalShortcutInfoE9QIterableI13QMetaSequenceEN9QtPrivate37QSequentialIterableMutableViewFunctorIS3_EEEEbT1_EUlPvSB_E_@Base 6.0.0
 _ZTIZN9QMetaType19registerMutableViewI5QListIS1_I7QStringEE9QIterableI13QMetaSequenceEN9QtPrivate37QSequentialIterableMutableViewFunctorIS4_EEEEbT1_EUlPvSC_E_@Base 6.0.0
 _ZTIZN9QMetaType19registerMutableViewI5QListIiE9QIterableI13QMetaSequenceEN9QtPrivate37QSequentialIterableMutableViewFunctorIS2_EEEEbT1_EUlPvSA_E_@Base 6.0.0
 _ZTS12KGlobalAccel@Base 6.0.0
 _ZTS19KGlobalShortcutInfo@Base 6.0.0
 _ZTSZN9QMetaType17registerConverterI5QListI12QKeySequenceE9QIterableI13QMetaSequenceEN9QtPrivate33QSequentialIterableConvertFunctorIS3_EEEEbT1_EUlPKvPvE_@Base 6.0.0
 _ZTSZN9QMetaType17registerConverterI5QListI15QDBusObjectPathE9QIterableI13QMetaSequenceEN9QtPrivate33QSequentialIterableConvertFunctorIS3_EEEEbT1_EUlPKvPvE_@Base 6.0.0
 _ZTSZN9QMetaType17registerConverterI5QListI19KGlobalShortcutInfoE9QIterableI13QMetaSequenceEN9QtPrivate33QSequentialIterableConvertFunctorIS3_EEEEbT1_EUlPKvPvE_@Base 6.0.0
 _ZTSZN9QMetaType17registerConverterI5QListIS1_I7QStringEE9QIterableI13QMetaSequenceEN9QtPrivate33QSequentialIterableConvertFunctorIS4_EEEEbT1_EUlPKvPvE_@Base 6.0.0
 _ZTSZN9QMetaType17registerConverterI5QListIiE9QIterableI13QMetaSequenceEN9QtPrivate33QSequentialIterableConvertFunctorIS2_EEEEbT1_EUlPKvPvE_@Base 6.0.0
 _ZTSZN9QMetaType19registerMutableViewI5QListI12QKeySequenceE9QIterableI13QMetaSequenceEN9QtPrivate37QSequentialIterableMutableViewFunctorIS3_EEEEbT1_EUlPvSB_E_@Base 6.0.0
 _ZTSZN9QMetaType19registerMutableViewI5QListI15QDBusObjectPathE9QIterableI13QMetaSequenceEN9QtPrivate37QSequentialIterableMutableViewFunctorIS3_EEEEbT1_EUlPvSB_E_@Base 6.0.0
 _ZTSZN9QMetaType19registerMutableViewI5QListI19KGlobalShortcutInfoE9QIterableI13QMetaSequenceEN9QtPrivate37QSequentialIterableMutableViewFunctorIS3_EEEEbT1_EUlPvSB_E_@Base 6.0.0
 _ZTSZN9QMetaType19registerMutableViewI5QListIS1_I7QStringEE9QIterableI13QMetaSequenceEN9QtPrivate37QSequentialIterableMutableViewFunctorIS4_EEEEbT1_EUlPvSC_E_@Base 6.0.0
 _ZTSZN9QMetaType19registerMutableViewI5QListIiE9QIterableI13QMetaSequenceEN9QtPrivate37QSequentialIterableMutableViewFunctorIS2_EEEEbT1_EUlPvSA_E_@Base 6.0.0
 _ZTV12KGlobalAccel@Base 6.0.0
 _ZTV19KGlobalShortcutInfo@Base 6.0.0
 (optional=templinst)_ZZN9QMetaType21registerConverterImplI5QListI12QKeySequenceE9QIterableI13QMetaSequenceEEEbSt8functionIFbPKvPvEES_S_E10unregister@Base 6.0.0
 (optional=templinst)_ZZN9QMetaType21registerConverterImplI5QListI15QDBusObjectPathE9QIterableI13QMetaSequenceEEEbSt8functionIFbPKvPvEES_S_E10unregister@Base 6.0.0
 (optional=templinst)_ZZN9QMetaType21registerConverterImplI5QListI19KGlobalShortcutInfoE9QIterableI13QMetaSequenceEEEbSt8functionIFbPKvPvEES_S_E10unregister@Base 6.0.0
 (optional=templinst)_ZZN9QMetaType21registerConverterImplI5QListIS1_I7QStringEE9QIterableI13QMetaSequenceEEEbSt8functionIFbPKvPvEES_S_E10unregister@Base 6.0.0
 (optional=templinst)_ZZN9QMetaType21registerConverterImplI5QListIiE9QIterableI13QMetaSequenceEEEbSt8functionIFbPKvPvEES_S_E10unregister@Base 6.0.0
 (optional=templinst)_ZZN9QMetaType23registerMutableViewImplI5QListI12QKeySequenceE9QIterableI13QMetaSequenceEEEbSt8functionIFbPvS8_EES_S_E10unregister@Base 6.0.0
 (optional=templinst)_ZZN9QMetaType23registerMutableViewImplI5QListI15QDBusObjectPathE9QIterableI13QMetaSequenceEEEbSt8functionIFbPvS8_EES_S_E10unregister@Base 6.0.0
 (optional=templinst)_ZZN9QMetaType23registerMutableViewImplI5QListI19KGlobalShortcutInfoE9QIterableI13QMetaSequenceEEEbSt8functionIFbPvS8_EES_S_E10unregister@Base 6.0.0
 (optional=templinst)_ZZN9QMetaType23registerMutableViewImplI5QListIS1_I7QStringEE9QIterableI13QMetaSequenceEEEbSt8functionIFbPvS9_EES_S_E10unregister@Base 6.0.0
 (optional=templinst)_ZZN9QMetaType23registerMutableViewImplI5QListIiE9QIterableI13QMetaSequenceEEEbSt8functionIFbPvS7_EES_S_E10unregister@Base 6.0.0
 _ZlsR13QDBusArgumentRK12QKeySequence@Base 6.0.0
 _ZlsR13QDBusArgumentRK19KGlobalShortcutInfo@Base 6.0.0
 _ZlsR13QDBusArgumentRKN12KGlobalAccel9MatchTypeE@Base 6.0.0
 _ZrsRK13QDBusArgumentR12QKeySequence@Base 6.0.0
 _ZrsRK13QDBusArgumentR19KGlobalShortcutInfo@Base 6.0.0
 _ZrsRK13QDBusArgumentRN12KGlobalAccel9MatchTypeE@Base 6.0.0
